; ModuleID = '29/1338.c'
source_filename = "29/1338.c"
target datalayout = "e-m:e-p270:32:32-p271:32:32-p272:64:64-i64:64-f80:128-n8:16:32:64-S128"
target triple = "x86_64-pc-linux-gnu"

@.str = private unnamed_addr constant [3 x i8] c"%d\00", align 1
@.str.1 = private unnamed_addr constant [7 x i8] c"%.3lf\0A\00", align 1

; Function Attrs: noinline nounwind uwtable
define dso_local i32 @main() #0 {
  %1 = alloca i32, align 4
  %2 = alloca [1000 x i32], align 16
  %3 = alloca i32, align 4
  %4 = alloca i32, align 4
  %5 = alloca i32, align 4
  %6 = alloca i32, align 4
  %7 = alloca i32, align 4
  %8 = alloca i32, align 4
  %9 = alloca [1000 x double], align 16
  %10 = alloca double, align 8
  store i32 0, i32* %1, align 4
  store i32 2, i32* %6, align 4
  store i32 1, i32* %7, align 4
  store double 0.000000e+00, double* %10, align 8
  %11 = call i32 (i8*, ...) @__isoc99_scanf(i8* getelementptr inbounds ([3 x i8], [3 x i8]* @.str, i64 0, i64 0), i32* %3)
  store i32 0, i32* %5, align 4
  br label %12

12:                                               ; preds = %21, %0
  %13 = load i32, i32* %5, align 4
  %14 = load i32, i32* %3, align 4
  %15 = icmp slt i32 %13, %14
  br i1 %15, label %16, label %24

16:                                               ; preds = %12
  %17 = load i32, i32* %5, align 4
  %18 = sext i32 %17 to i64
  %19 = getelementptr inbounds [1000 x i32], [1000 x i32]* %2, i64 0, i64 %18
  %20 = call i32 (i8*, ...) @__isoc99_scanf(i8* getelementptr inbounds ([3 x i8], [3 x i8]* @.str, i64 0, i64 0), i32* %19)
  br label %21

21:                                               ; preds = %16
  %22 = load i32, i32* %5, align 4
  %23 = add nsw i32 %22, 1
  store i32 %23, i32* %5, align 4
  br label %12

24:                                               ; preds = %12
  store i32 0, i32* %5, align 4
  br label %25

25:                                               ; preds = %59, %24
  %26 = load i32, i32* %5, align 4
  %27 = load i32, i32* %3, align 4
  %28 = icmp slt i32 %26, %27
  br i1 %28, label %29, label %62

29:                                               ; preds = %25
  store double 0.000000e+00, double* %10, align 8
  store i32 2, i32* %6, align 4
  store i32 1, i32* %7, align 4
  store i32 0, i32* %4, align 4
  br label %30

30:                                               ; preds = %51, %29
  %31 = load i32, i32* %4, align 4
  %32 = load i32, i32* %5, align 4
  %33 = sext i32 %32 to i64
  %34 = getelementptr inbounds [1000 x i32], [1000 x i32]* %2, i64 0, i64 %33
  %35 = load i32, i32* %34, align 4
  %36 = icmp slt i32 %31, %35
  br i1 %36, label %37, label %54

37:                                               ; preds = %30
  %38 = load i32, i32* %6, align 4
  %39 = sitofp i32 %38 to double
  %40 = fmul double 1.000000e+00, %39
  %41 = load i32, i32* %7, align 4
  %42 = sitofp i32 %41 to double
  %43 = fdiv double %40, %42
  %44 = load double, double* %10, align 8
  %45 = fadd double %44, %43
  store double %45, double* %10, align 8
  %46 = load i32, i32* %6, align 4
  store i32 %46, i32* %8, align 4
  %47 = load i32, i32* %6, align 4
  %48 = load i32, i32* %7, align 4
  %49 = add nsw i32 %47, %48
  store i32 %49, i32* %6, align 4
  %50 = load i32, i32* %8, align 4
  store i32 %50, i32* %7, align 4
  br label %51

51:                                               ; preds = %37
  %52 = load i32, i32* %4, align 4
  %53 = add nsw i32 %52, 1
  store i32 %53, i32* %4, align 4
  br label %30

54:                                               ; preds = %30
  %55 = load double, double* %10, align 8
  %56 = load i32, i32* %5, align 4
  %57 = sext i32 %56 to i64
  %58 = getelementptr inbounds [1000 x double], [1000 x double]* %9, i64 0, i64 %57
  store double %55, double* %58, align 8
  br label %59

59:                                               ; preds = %54
  %60 = load i32, i32* %5, align 4
  %61 = add nsw i32 %60, 1
  store i32 %61, i32* %5, align 4
  br label %25

62:                                               ; preds = %25
  store i32 0, i32* %5, align 4
  br label %63

63:                                               ; preds = %73, %62
  %64 = load i32, i32* %5, align 4
  %65 = load i32, i32* %3, align 4
  %66 = icmp slt i32 %64, %65
  br i1 %66, label %67, label %76

67:                                               ; preds = %63
  %68 = load i32, i32* %5, align 4
  %69 = sext i32 %68 to i64
  %70 = getelementptr inbounds [1000 x double], [1000 x double]* %9, i64 0, i64 %69
  %71 = load double, double* %70, align 8
  %72 = call i32 (i8*, ...) @printf(i8* getelementptr inbounds ([7 x i8], [7 x i8]* @.str.1, i64 0, i64 0), double %71)
  br label %73

73:                                               ; preds = %67
  %74 = load i32, i32* %5, align 4
  %75 = add nsw i32 %74, 1
  store i32 %75, i32* %5, align 4
  br label %63

76:                                               ; preds = %63
  ret i32 0
}

declare dso_local i32 @__isoc99_scanf(i8*, ...) #1

declare dso_local i32 @printf(i8*, ...) #1


!llvm.module.flags = !{!0}
!llvm.ident = !{!1}

!0 = !{i32 1, !"wchar_size", i32 4}
!1 = !{!"clang version 10.0.0-4ubuntu1 "}
